target datalayout = "e-m:e-p270:32:32-p271:32:32-p272:64:64-i64:64-i128:128-f80:128-n8:16:32:64-S128"
target triple = "x86_64-pc-linux-gnu"

; Function Attrs: mustprogress nounwind uwtable
define internal noundef i32 @_ZNSt3__1L13utf16_to_utf8EPKtS1_RS1_PhS3_RS3_mNS_12codecvt_modeE(ptr noundef %0, ptr noundef %1, ptr noundef nonnull align 8 dereferenceable(8) %2, ptr noundef %3, ptr noundef %4, ptr noundef nonnull align 8 dereferenceable(8) %5, i64 noundef %6, i32 noundef %7) #0 {
  %9 = alloca i32, align 4
  %10 = alloca ptr, align 8
  %11 = alloca ptr, align 8
  %12 = alloca ptr, align 8
  %13 = alloca ptr, align 8
  %14 = alloca ptr, align 8
  %15 = alloca ptr, align 8
  %16 = alloca i64, align 8
  %17 = alloca i32, align 4
  %18 = alloca i16, align 2
  %19 = alloca i32, align 4
  %20 = alloca i16, align 2
  %21 = alloca i8, align 1
  store ptr %0, ptr %10, align 8, !tbaa !70
  store ptr %1, ptr %11, align 8, !tbaa !70
  store ptr %2, ptr %12, align 8, !tbaa !500
  store ptr %3, ptr %13, align 8, !tbaa !9
  store ptr %4, ptr %14, align 8, !tbaa !9
  store ptr %5, ptr %15, align 8, !tbaa !95
  store i64 %6, ptr %16, align 8, !tbaa !16
  store i32 %7, ptr %17, align 4, !tbaa !502
  %22 = load ptr, ptr %10, align 8, !tbaa !70
  %23 = load ptr, ptr %12, align 8, !tbaa !500
  store ptr %22, ptr %23, align 8, !tbaa !70
  %24 = load ptr, ptr %13, align 8, !tbaa !9
  %25 = load ptr, ptr %15, align 8, !tbaa !95
  store ptr %24, ptr %25, align 8, !tbaa !9
  %26 = load i32, ptr %17, align 4, !tbaa !502
  %27 = and i32 %26, 2
  %28 = icmp ne i32 %27, 0
  br i1 %28, label %29, label %48

29:                                               ; preds = %8
  %30 = load ptr, ptr %14, align 8, !tbaa !9
  %31 = load ptr, ptr %15, align 8, !tbaa !95
  %32 = load ptr, ptr %31, align 8, !tbaa !9
  %33 = ptrtoint ptr %30 to i64
  %34 = ptrtoint ptr %32 to i64
  %35 = sub i64 %33, %34
  %36 = icmp slt i64 %35, 3
  br i1 %36, label %37, label %38

37:                                               ; preds = %29
  store i32 1, ptr %9, align 4
  br label %314

38:                                               ; preds = %29
  %39 = load ptr, ptr %15, align 8, !tbaa !95
  %40 = load ptr, ptr %39, align 8, !tbaa !9
  %41 = getelementptr inbounds nuw i8, ptr %40, i32 1
  store ptr %41, ptr %39, align 8, !tbaa !9
  store i8 -17, ptr %40, align 1, !tbaa !11
  %42 = load ptr, ptr %15, align 8, !tbaa !95
  %43 = load ptr, ptr %42, align 8, !tbaa !9
  %44 = getelementptr inbounds nuw i8, ptr %43, i32 1
  store ptr %44, ptr %42, align 8, !tbaa !9
  store i8 -69, ptr %43, align 1, !tbaa !11
  %45 = load ptr, ptr %15, align 8, !tbaa !95
  %46 = load ptr, ptr %45, align 8, !tbaa !9
  %47 = getelementptr inbounds nuw i8, ptr %46, i32 1
  store ptr %47, ptr %45, align 8, !tbaa !9
  store i8 -65, ptr %46, align 1, !tbaa !11
  br label %48

48:                                               ; preds = %38, %8
  br label %49

49:                                               ; preds = %309, %48
  %50 = load ptr, ptr %12, align 8, !tbaa !500
  %51 = load ptr, ptr %50, align 8, !tbaa !70
  %52 = load ptr, ptr %11, align 8, !tbaa !70
  %53 = icmp ult ptr %51, %52
  br i1 %53, label %54, label %313

54:                                               ; preds = %49
  call void @llvm.lifetime.start.p0(i64 2, ptr %18) #13
  %55 = load ptr, ptr %12, align 8, !tbaa !500
  %56 = load ptr, ptr %55, align 8, !tbaa !70
  %57 = load i16, ptr %56, align 2, !tbaa !73
  store i16 %57, ptr %18, align 2, !tbaa !73
  %58 = load i16, ptr %18, align 2, !tbaa !73
  %59 = zext i16 %58 to i64
  %60 = load i64, ptr %16, align 8, !tbaa !16
  %61 = icmp ugt i64 %59, %60
  br i1 %61, label %62, label %63

62:                                               ; preds = %54
  store i32 2, ptr %9, align 4
  store i32 1, ptr %19, align 4
  br label %306

63:                                               ; preds = %54
  %64 = load i16, ptr %18, align 2, !tbaa !73
  %65 = zext i16 %64 to i32
  %66 = icmp slt i32 %65, 128
  br i1 %66, label %67, label %82

67:                                               ; preds = %63
  %68 = load ptr, ptr %14, align 8, !tbaa !9
  %69 = load ptr, ptr %15, align 8, !tbaa !95
  %70 = load ptr, ptr %69, align 8, !tbaa !9
  %71 = ptrtoint ptr %68 to i64
  %72 = ptrtoint ptr %70 to i64
  %73 = sub i64 %71, %72
  %74 = icmp slt i64 %73, 1
  br i1 %74, label %75, label %76

75:                                               ; preds = %67
  store i32 1, ptr %9, align 4
  store i32 1, ptr %19, align 4
  br label %306

76:                                               ; preds = %67
  %77 = load i16, ptr %18, align 2, !tbaa !73
  %78 = trunc i16 %77 to i8
  %79 = load ptr, ptr %15, align 8, !tbaa !95
  %80 = load ptr, ptr %79, align 8, !tbaa !9
  %81 = getelementptr inbounds nuw i8, ptr %80, i32 1
  store ptr %81, ptr %79, align 8, !tbaa !9
  store i8 %78, ptr %80, align 1, !tbaa !11
  br label %305

82:                                               ; preds = %63
  %83 = load i16, ptr %18, align 2, !tbaa !73
  %84 = zext i16 %83 to i32
  %85 = icmp slt i32 %84, 2048
  br i1 %85, label %86, label %112

86:                                               ; preds = %82
  %87 = load ptr, ptr %14, align 8, !tbaa !9
  %88 = load ptr, ptr %15, align 8, !tbaa !95
  %89 = load ptr, ptr %88, align 8, !tbaa !9
  %90 = ptrtoint ptr %87 to i64
  %91 = ptrtoint ptr %89 to i64
  %92 = sub i64 %90, %91
  %93 = icmp slt i64 %92, 2
  br i1 %93, label %94, label %95

94:                                               ; preds = %86
  store i32 1, ptr %9, align 4
  store i32 1, ptr %19, align 4
  br label %306

95:                                               ; preds = %86
  %96 = load i16, ptr %18, align 2, !tbaa !73
  %97 = zext i16 %96 to i32
  %98 = ashr i32 %97, 6
  %99 = or i32 192, %98
  %100 = trunc i32 %99 to i8
  %101 = load ptr, ptr %15, align 8, !tbaa !95
  %102 = load ptr, ptr %101, align 8, !tbaa !9
  %103 = getelementptr inbounds nuw i8, ptr %102, i32 1
  store ptr %103, ptr %101, align 8, !tbaa !9
  store i8 %100, ptr %102, align 1, !tbaa !11
  %104 = load i16, ptr %18, align 2, !tbaa !73
  %105 = zext i16 %104 to i32
  %106 = and i32 %105, 63
  %107 = or i32 128, %106
  %108 = trunc i32 %107 to i8
  %109 = load ptr, ptr %15, align 8, !tbaa !95
  %110 = load ptr, ptr %109, align 8, !tbaa !9
  %111 = getelementptr inbounds nuw i8, ptr %110, i32 1
  store ptr %111, ptr %109, align 8, !tbaa !9
  store i8 %108, ptr %110, align 1, !tbaa !11
  br label %304

112:                                              ; preds = %82
  %113 = load i16, ptr %18, align 2, !tbaa !73
  %114 = zext i16 %113 to i32
  %115 = icmp slt i32 %114, 55296
  br i1 %115, label %116, label %151

116:                                              ; preds = %112
  %117 = load ptr, ptr %14, align 8, !tbaa !9
  %118 = load ptr, ptr %15, align 8, !tbaa !95
  %119 = load ptr, ptr %118, align 8, !tbaa !9
  %120 = ptrtoint ptr %117 to i64
  %121 = ptrtoint ptr %119 to i64
  %122 = sub i64 %120, %121
  %123 = icmp slt i64 %122, 3
  br i1 %123, label %124, label %125

124:                                              ; preds = %116
  store i32 1, ptr %9, align 4
  store i32 1, ptr %19, align 4
  br label %306

125:                                              ; preds = %116
  %126 = load i16, ptr %18, align 2, !tbaa !73
  %127 = zext i16 %126 to i32
  %128 = ashr i32 %127, 12
  %129 = or i32 224, %128
  %130 = trunc i32 %129 to i8
  %131 = load ptr, ptr %15, align 8, !tbaa !95
  %132 = load ptr, ptr %131, align 8, !tbaa !9
  %133 = getelementptr inbounds nuw i8, ptr %132, i32 1
  store ptr %133, ptr %131, align 8, !tbaa !9
  store i8 %130, ptr %132, align 1, !tbaa !11
  %134 = load i16, ptr %18, align 2, !tbaa !73
  %135 = zext i16 %134 to i32
  %136 = and i32 %135, 4032
  %137 = ashr i32 %136, 6
  %138 = or i32 128, %137
  %139 = trunc i32 %138 to i8
  %140 = load ptr, ptr %15, align 8, !tbaa !95
  %141 = load ptr, ptr %140, align 8, !tbaa !9
  %142 = getelementptr inbounds nuw i8, ptr %141, i32 1
  store ptr %142, ptr %140, align 8, !tbaa !9
  store i8 %139, ptr %141, align 1, !tbaa !11
  %143 = load i16, ptr %18, align 2, !tbaa !73
  %144 = zext i16 %143 to i32
  %145 = and i32 %144, 63
  %146 = or i32 128, %145
  %147 = trunc i32 %146 to i8
  %148 = load ptr, ptr %15, align 8, !tbaa !95
  %149 = load ptr, ptr %148, align 8, !tbaa !9
  %150 = getelementptr inbounds nuw i8, ptr %149, i32 1
  store ptr %150, ptr %148, align 8, !tbaa !9
  store i8 %147, ptr %149, align 1, !tbaa !11
  br label %303

151:                                              ; preds = %112
  %152 = load i16, ptr %18, align 2, !tbaa !73
  %153 = zext i16 %152 to i32
  %154 = icmp slt i32 %153, 56320
  br i1 %154, label %155, label %261

155:                                              ; preds = %151
  %156 = load ptr, ptr %11, align 8, !tbaa !70
  %157 = load ptr, ptr %12, align 8, !tbaa !500
  %158 = load ptr, ptr %157, align 8, !tbaa !70
  %159 = ptrtoint ptr %156 to i64
  %160 = ptrtoint ptr %158 to i64
  %161 = sub i64 %159, %160
  %162 = sdiv exact i64 %161, 2
  %163 = icmp slt i64 %162, 2
  br i1 %163, label %164, label %165

164:                                              ; preds = %155
  store i32 1, ptr %9, align 4
  store i32 1, ptr %19, align 4
  br label %306

165:                                              ; preds = %155
  call void @llvm.lifetime.start.p0(i64 2, ptr %20) #13
  %166 = load ptr, ptr %12, align 8, !tbaa !500
  %167 = load ptr, ptr %166, align 8, !tbaa !70
  %168 = getelementptr inbounds i16, ptr %167, i64 1
  %169 = load i16, ptr %168, align 2, !tbaa !73
  store i16 %169, ptr %20, align 2, !tbaa !73
  %170 = load i16, ptr %20, align 2, !tbaa !73
  %171 = zext i16 %170 to i32
  %172 = and i32 %171, 64512
  %173 = icmp ne i32 %172, 56320
  br i1 %173, label %174, label %175

174:                                              ; preds = %165
  store i32 2, ptr %9, align 4
  store i32 1, ptr %19, align 4
  br label %258

175:                                              ; preds = %165
  %176 = load ptr, ptr %14, align 8, !tbaa !9
  %177 = load ptr, ptr %15, align 8, !tbaa !95
  %178 = load ptr, ptr %177, align 8, !tbaa !9
  %179 = ptrtoint ptr %176 to i64
  %180 = ptrtoint ptr %178 to i64
  %181 = sub i64 %179, %180
  %182 = icmp slt i64 %181, 4
  br i1 %182, label %183, label %184

183:                                              ; preds = %175
  store i32 1, ptr %9, align 4
  store i32 1, ptr %19, align 4
  br label %258

184:                                              ; preds = %175
  %185 = load i16, ptr %18, align 2, !tbaa !73
  %186 = zext i16 %185 to i64
  %187 = and i64 %186, 960
  %188 = lshr i64 %187, 6
  %189 = add i64 %188, 1
  %190 = shl i64 %189, 16
  %191 = load i16, ptr %18, align 2, !tbaa !73
  %192 = zext i16 %191 to i64
  %193 = and i64 %192, 63
  %194 = shl i64 %193, 10
  %195 = add i64 %190, %194
  %196 = load i16, ptr %20, align 2, !tbaa !73
  %197 = zext i16 %196 to i32
  %198 = and i32 %197, 1023
  %199 = sext i32 %198 to i64
  %200 = add i64 %195, %199
  %201 = load i64, ptr %16, align 8, !tbaa !16
  %202 = icmp ugt i64 %200, %201
  br i1 %202, label %203, label %204

203:                                              ; preds = %184
  store i32 2, ptr %9, align 4
  store i32 1, ptr %19, align 4
  br label %258

204:                                              ; preds = %184
  %205 = load ptr, ptr %12, align 8, !tbaa !500
  %206 = load ptr, ptr %205, align 8, !tbaa !70
  %207 = getelementptr inbounds nuw i16, ptr %206, i32 1
  store ptr %207, ptr %205, align 8, !tbaa !70
  call void @llvm.lifetime.start.p0(i64 1, ptr %21) #13
  %208 = load i16, ptr %18, align 2, !tbaa !73
  %209 = zext i16 %208 to i32
  %210 = and i32 %209, 960
  %211 = ashr i32 %210, 6
  %212 = add nsw i32 %211, 1
  %213 = trunc i32 %212 to i8
  store i8 %213, ptr %21, align 1, !tbaa !11
  %214 = load i8, ptr %21, align 1, !tbaa !11
  %215 = zext i8 %214 to i32
  %216 = ashr i32 %215, 2
  %217 = or i32 240, %216
  %218 = trunc i32 %217 to i8
  %219 = load ptr, ptr %15, align 8, !tbaa !95
  %220 = load ptr, ptr %219, align 8, !tbaa !9
  %221 = getelementptr inbounds nuw i8, ptr %220, i32 1
  store ptr %221, ptr %219, align 8, !tbaa !9
  store i8 %218, ptr %220, align 1, !tbaa !11
  %222 = load i8, ptr %21, align 1, !tbaa !11
  %223 = zext i8 %222 to i32
  %224 = and i32 %223, 3
  %225 = shl i32 %224, 4
  %226 = or i32 128, %225
  %227 = load i16, ptr %18, align 2, !tbaa !73
  %228 = zext i16 %227 to i32
  %229 = and i32 %228, 60
  %230 = ashr i32 %229, 2
  %231 = or i32 %226, %230
  %232 = trunc i32 %231 to i8
  %233 = load ptr, ptr %15, align 8, !tbaa !95
  %234 = load ptr, ptr %233, align 8, !tbaa !9
  %235 = getelementptr inbounds nuw i8, ptr %234, i32 1
  store ptr %235, ptr %233, align 8, !tbaa !9
  store i8 %232, ptr %234, align 1, !tbaa !11
  %236 = load i16, ptr %18, align 2, !tbaa !73
  %237 = zext i16 %236 to i32
  %238 = and i32 %237, 3
  %239 = shl i32 %238, 4
  %240 = or i32 128, %239
  %241 = load i16, ptr %20, align 2, !tbaa !73
  %242 = zext i16 %241 to i32
  %243 = and i32 %242, 960
  %244 = ashr i32 %243, 6
  %245 = or i32 %240, %244
  %246 = trunc i32 %245 to i8
  %247 = load ptr, ptr %15, align 8, !tbaa !95
  %248 = load ptr, ptr %247, align 8, !tbaa !9
  %249 = getelementptr inbounds nuw i8, ptr %248, i32 1
  store ptr %249, ptr %247, align 8, !tbaa !9
  store i8 %246, ptr %248, align 1, !tbaa !11
  %250 = load i16, ptr %20, align 2, !tbaa !73
  %251 = zext i16 %250 to i32
  %252 = and i32 %251, 63
  %253 = or i32 128, %252
  %254 = trunc i32 %253 to i8
  %255 = load ptr, ptr %15, align 8, !tbaa !95
  %256 = load ptr, ptr %255, align 8, !tbaa !9
  %257 = getelementptr inbounds nuw i8, ptr %256, i32 1
  store ptr %257, ptr %255, align 8, !tbaa !9
  store i8 %254, ptr %256, align 1, !tbaa !11
  call void @llvm.lifetime.end.p0(i64 1, ptr %21) #13
  store i32 0, ptr %19, align 4
  br label %258

258:                                              ; preds = %204, %203, %183, %174
  call void @llvm.lifetime.end.p0(i64 2, ptr %20) #13
  %259 = load i32, ptr %19, align 4
  switch i32 %259, label %306 [
    i32 0, label %260
  ]

260:                                              ; preds = %258
  br label %302

261:                                              ; preds = %151
  %262 = load i16, ptr %18, align 2, !tbaa !73
  %263 = zext i16 %262 to i32
  %264 = icmp slt i32 %263, 57344
  br i1 %264, label %265, label %266

265:                                              ; preds = %261
  store i32 2, ptr %9, align 4
  store i32 1, ptr %19, align 4
  br label %306

266:                                              ; preds = %261
  %267 = load ptr, ptr %14, align 8, !tbaa !9
  %268 = load ptr, ptr %15, align 8, !tbaa !95
  %269 = load ptr, ptr %268, align 8, !tbaa !9
  %270 = ptrtoint ptr %267 to i64
  %271 = ptrtoint ptr %269 to i64
  %272 = sub i64 %270, %271
  %273 = icmp slt i64 %272, 3
  br i1 %273, label %274, label %275

274:                                              ; preds = %266
  store i32 1, ptr %9, align 4
  store i32 1, ptr %19, align 4
  br label %306

275:                                              ; preds = %266
  %276 = load i16, ptr %18, align 2, !tbaa !73
  %277 = zext i16 %276 to i32
  %278 = ashr i32 %277, 12
  %279 = or i32 224, %278
  %280 = trunc i32 %279 to i8
  %281 = load ptr, ptr %15, align 8, !tbaa !95
  %282 = load ptr, ptr %281, align 8, !tbaa !9
  %283 = getelementptr inbounds nuw i8, ptr %282, i32 1
  store ptr %283, ptr %281, align 8, !tbaa !9
  store i8 %280, ptr %282, align 1, !tbaa !11
  %284 = load i16, ptr %18, align 2, !tbaa !73
  %285 = zext i16 %284 to i32
  %286 = and i32 %285, 4032
  %287 = ashr i32 %286, 6
  %288 = or i32 128, %287
  %289 = trunc i32 %288 to i8
  %290 = load ptr, ptr %15, align 8, !tbaa !95
  %291 = load ptr, ptr %290, align 8, !tbaa !9
  %292 = getelementptr inbounds nuw i8, ptr %291, i32 1
  store ptr %292, ptr %290, align 8, !tbaa !9
  store i8 %289, ptr %291, align 1, !tbaa !11
  %293 = load i16, ptr %18, align 2, !tbaa !73
  %294 = zext i16 %293 to i32
  %295 = and i32 %294, 63
  %296 = or i32 128, %295
  %297 = trunc i32 %296 to i8
  %298 = load ptr, ptr %15, align 8, !tbaa !95
  %299 = load ptr, ptr %298, align 8, !tbaa !9
  %300 = getelementptr inbounds nuw i8, ptr %299, i32 1
  store ptr %300, ptr %298, align 8, !tbaa !9
  store i8 %297, ptr %299, align 1, !tbaa !11
  br label %301

301:                                              ; preds = %275
  br label %302

302:                                              ; preds = %301, %260
  br label %303

303:                                              ; preds = %302, %125
  br label %304

304:                                              ; preds = %303, %95
  br label %305

305:                                              ; preds = %304, %76
  store i32 0, ptr %19, align 4
  br label %306

306:                                              ; preds = %305, %274, %265, %258, %164, %124, %94, %75, %62
  call void @llvm.lifetime.end.p0(i64 2, ptr %18) #13
  %307 = load i32, ptr %19, align 4
  switch i32 %307, label %316 [
    i32 0, label %308
    i32 1, label %314
  ]

308:                                              ; preds = %306
  br label %309

309:                                              ; preds = %308
  %310 = load ptr, ptr %12, align 8, !tbaa !500
  %311 = load ptr, ptr %310, align 8, !tbaa !70
  %312 = getelementptr inbounds nuw i16, ptr %311, i32 1
  store ptr %312, ptr %310, align 8, !tbaa !70
  br label %49, !llvm.loop !504

313:                                              ; preds = %49
  store i32 0, ptr %9, align 4
  br label %314

314:                                              ; preds = %313, %306, %37
  %315 = load i32, ptr %9, align 4
  ret i32 %315

316:                                              ; preds = %306
  unreachable
}