; Function Attrs: mustprogress nofree norecurse nosync nounwind memory(readwrite, inaccessiblemem: none) uwtable
define internal fastcc noundef range(i32 0, 3) i32 @_ZNSt3__1L13utf16_to_utf8EPKtS1_RS1_PhS3_RS3_mNS_12codecvt_modeE(ptr noundef %0, ptr noundef %1, ptr noundef nonnull align 8 captures(none) dereferenceable(8) initializes((0, 8)) %2, ptr noundef %3, ptr noundef %4, ptr noundef nonnull align 8 captures(none) dereferenceable(8) initializes((0, 8)) %5, i64 noundef %6, i32 noundef %7) unnamed_addr #26 {
  store ptr %0, ptr %2, align 8, !tbaa !419
  store ptr %3, ptr %5, align 8, !tbaa !72
  %9 = and i32 %7, 2
  %.not = icmp eq i32 %9, 0
  br i1 %.not, label %21, label %10

10:                                               ; preds = %8
  %11 = ptrtoint ptr %4 to i64
  %12 = ptrtoint ptr %3 to i64
  %13 = sub i64 %11, %12
  %14 = icmp slt i64 %13, 3
  br i1 %14, label %.thread83, label %15

15:                                               ; preds = %10
  %16 = getelementptr inbounds nuw i8, ptr %3, i64 1
  store ptr %16, ptr %5, align 8, !tbaa !72
  store i8 -17, ptr %3, align 1, !tbaa !4
  %17 = load ptr, ptr %5, align 8, !tbaa !72
  %18 = getelementptr inbounds nuw i8, ptr %17, i64 1
  store ptr %18, ptr %5, align 8, !tbaa !72
  store i8 -69, ptr %17, align 1, !tbaa !4
  %19 = load ptr, ptr %5, align 8, !tbaa !72
  %20 = getelementptr inbounds nuw i8, ptr %19, i64 1
  store ptr %20, ptr %5, align 8, !tbaa !72
  store i8 -65, ptr %19, align 1, !tbaa !4
  %.pre = load ptr, ptr %2, align 8, !tbaa !419
  br label %21

21:                                               ; preds = %15, %8
  %22 = phi ptr [ %.pre, %15 ], [ %0, %8 ]
  %23 = ptrtoint ptr %1 to i64
  %24 = icmp ult ptr %22, %1
  br i1 %24, label %.lr.ph, label %.thread83

.lr.ph:                                           ; preds = %21
  %25 = ptrtoint ptr %4 to i64
  br label %26

26:                                               ; preds = %.lr.ph, %159
  %27 = phi ptr [ %22, %.lr.ph ], [ %161, %159 ]
  %28 = load i16, ptr %27, align 2, !tbaa !70
  %29 = zext i16 %28 to i64
  %30 = icmp ult i64 %6, %29
  br i1 %30, label %.thread83, label %31

31:                                               ; preds = %26
  %32 = icmp ult i16 %28, 128
  br i1 %32, label %33, label %41

33:                                               ; preds = %31
  %34 = load ptr, ptr %5, align 8, !tbaa !72
  %35 = ptrtoint ptr %34 to i64
  %36 = sub i64 %25, %35
  %37 = icmp slt i64 %36, 1
  br i1 %37, label %.thread83, label %38

38:                                               ; preds = %33
  %39 = trunc nuw nsw i16 %28 to i8
  %40 = getelementptr inbounds nuw i8, ptr %34, i64 1
  store ptr %40, ptr %5, align 8, !tbaa !72
  store i8 %39, ptr %34, align 1, !tbaa !4
  br label %159

41:                                               ; preds = %31
  %42 = icmp ult i16 %28, 2048
  br i1 %42, label %43, label %58

43:                                               ; preds = %41
  %44 = load ptr, ptr %5, align 8, !tbaa !72
  %45 = ptrtoint ptr %44 to i64
  %46 = sub i64 %25, %45
  %47 = icmp slt i64 %46, 2
  br i1 %47, label %.thread83, label %48

48:                                               ; preds = %43
  %49 = lshr i16 %28, 6
  %50 = trunc nuw nsw i16 %49 to i8
  %51 = or disjoint i8 %50, -64
  %52 = getelementptr inbounds nuw i8, ptr %44, i64 1
  store ptr %52, ptr %5, align 8, !tbaa !72
  store i8 %51, ptr %44, align 1, !tbaa !4
  %53 = trunc i16 %28 to i8
  %54 = and i8 %53, 63
  %55 = or disjoint i8 %54, -128
  %56 = load ptr, ptr %5, align 8, !tbaa !72
  %57 = getelementptr inbounds nuw i8, ptr %56, i64 1
  store ptr %57, ptr %5, align 8, !tbaa !72
  store i8 %55, ptr %56, align 1, !tbaa !4
  br label %159

58:                                               ; preds = %41
  %59 = icmp ult i16 %28, -10240
  br i1 %59, label %60, label %81

60:                                               ; preds = %58
  %61 = load ptr, ptr %5, align 8, !tbaa !72
  %62 = ptrtoint ptr %61 to i64
  %63 = sub i64 %25, %62
  %64 = icmp slt i64 %63, 3
  br i1 %64, label %.thread83, label %65

65:                                               ; preds = %60
  %66 = lshr i16 %28, 12
  %67 = trunc nuw nsw i16 %66 to i8
  %68 = or disjoint i8 %67, -32
  %69 = getelementptr inbounds nuw i8, ptr %61, i64 1
  store ptr %69, ptr %5, align 8, !tbaa !72
  store i8 %68, ptr %61, align 1, !tbaa !4
  %70 = lshr i16 %28, 6
  %71 = trunc i16 %70 to i8
  %72 = and i8 %71, 63
  %73 = or disjoint i8 %72, -128
  %74 = load ptr, ptr %5, align 8, !tbaa !72
  %75 = getelementptr inbounds nuw i8, ptr %74, i64 1
  store ptr %75, ptr %5, align 8, !tbaa !72
  store i8 %73, ptr %74, align 1, !tbaa !4
  %76 = trunc i16 %28 to i8
  %77 = and i8 %76, 63
  %78 = or disjoint i8 %77, -128
  %79 = load ptr, ptr %5, align 8, !tbaa !72
  %80 = getelementptr inbounds nuw i8, ptr %79, i64 1
  store ptr %80, ptr %5, align 8, !tbaa !72
  store i8 %78, ptr %79, align 1, !tbaa !4
  br label %159

81:                                               ; preds = %58
  %82 = icmp samesign ult i16 %28, -9216
  br i1 %82, label %83, label %137

83:                                               ; preds = %81
  %84 = ptrtoint ptr %27 to i64
  %85 = sub i64 %23, %84
  %86 = icmp slt i64 %85, 3
  br i1 %86, label %.thread83, label %87

87:                                               ; preds = %83
  %88 = getelementptr inbounds nuw i8, ptr %27, i64 2
  %89 = load i16, ptr %88, align 2, !tbaa !70
  %90 = zext i16 %89 to i32
  %91 = and i32 %90, 64512
  %.not78 = icmp eq i32 %91, 56320
  br i1 %.not78, label %92, label %.thread83

92:                                               ; preds = %87
  %93 = load ptr, ptr %5, align 8, !tbaa !72
  %94 = ptrtoint ptr %93 to i64
  %95 = sub i64 %25, %94
  %96 = icmp slt i64 %95, 4
  br i1 %96, label %.thread83, label %97

97:                                               ; preds = %92
  %98 = shl nuw nsw i64 %29, 10
  %99 = and i64 %98, 983040
  %100 = add nuw nsw i64 %99, 65536
  %101 = and i64 %98, 64512
  %102 = or disjoint i64 %100, %101
  %103 = and i32 %90, 1023
  %104 = zext nneg i32 %103 to i64
  %105 = or disjoint i64 %102, %104
  %106 = icmp ugt i64 %105, %6
  br i1 %106, label %.thread83, label %107

107:                                              ; preds = %97
  store ptr %88, ptr %2, align 8, !tbaa !419
  %108 = lshr i16 %28, 6
  %109 = and i16 %108, 15
  %narrow = add nuw nsw i16 %109, 1
  %110 = trunc nuw nsw i16 %narrow to i8
  %111 = lshr i8 %110, 2
  %112 = or disjoint i8 %111, -16
  %113 = getelementptr inbounds nuw i8, ptr %93, i64 1
  store ptr %113, ptr %5, align 8, !tbaa !72
  store i8 %112, ptr %93, align 1, !tbaa !4
  %114 = shl nuw nsw i16 %narrow, 4
  %115 = and i16 %114, 48
  %116 = lshr i16 %28, 2
  %117 = and i16 %116, 15
  %118 = or disjoint i16 %117, %115
  %119 = trunc nuw nsw i16 %118 to i8
  %120 = or disjoint i8 %119, -128
  %121 = load ptr, ptr %5, align 8, !tbaa !72
  %122 = getelementptr inbounds nuw i8, ptr %121, i64 1
  store ptr %122, ptr %5, align 8, !tbaa !72
  store i8 %120, ptr %121, align 1, !tbaa !4
  %123 = shl i16 %28, 4
  %124 = and i16 %123, 48
  %125 = lshr i16 %89, 6
  %126 = and i16 %125, 15
  %127 = or disjoint i16 %126, %124
  %128 = trunc nuw nsw i16 %127 to i8
  %129 = or disjoint i8 %128, -128
  %130 = load ptr, ptr %5, align 8, !tbaa !72
  %131 = getelementptr inbounds nuw i8, ptr %130, i64 1
  store ptr %131, ptr %5, align 8, !tbaa !72
  store i8 %129, ptr %130, align 1, !tbaa !4
  %132 = trunc i16 %89 to i8
  %133 = and i8 %132, 63
  %134 = or disjoint i8 %133, -128
  %135 = load ptr, ptr %5, align 8, !tbaa !72
  %136 = getelementptr inbounds nuw i8, ptr %135, i64 1
  store ptr %136, ptr %5, align 8, !tbaa !72
  store i8 %134, ptr %135, align 1, !tbaa !4
  br label %159

137:                                              ; preds = %81
  %138 = icmp samesign ult i16 %28, -8192
  br i1 %138, label %.thread83, label %139

139:                                              ; preds = %137
  %140 = load ptr, ptr %5, align 8, !tbaa !72
  %141 = ptrtoint ptr %140 to i64
  %142 = sub i64 %25, %141
  %143 = icmp slt i64 %142, 3
  br i1 %143, label %.thread83, label %144

144:                                              ; preds = %139
  %145 = lshr i16 %28, 12
  %146 = trunc nuw nsw i16 %145 to i8
  %147 = or disjoint i8 %146, -32
  %148 = getelementptr inbounds nuw i8, ptr %140, i64 1
  store ptr %148, ptr %5, align 8, !tbaa !72
  store i8 %147, ptr %140, align 1, !tbaa !4
  %149 = lshr i16 %28, 6
  %150 = trunc i16 %149 to i8
  %151 = and i8 %150, -65
  %152 = load ptr, ptr %5, align 8, !tbaa !72
  %153 = getelementptr inbounds nuw i8, ptr %152, i64 1
  store ptr %153, ptr %5, align 8, !tbaa !72
  store i8 %151, ptr %152, align 1, !tbaa !4
  %154 = trunc i16 %28 to i8
  %155 = and i8 %154, 63
  %156 = or disjoint i8 %155, -128
  %157 = load ptr, ptr %5, align 8, !tbaa !72
  %158 = getelementptr inbounds nuw i8, ptr %157, i64 1
  store ptr %158, ptr %5, align 8, !tbaa !72
  store i8 %156, ptr %157, align 1, !tbaa !4
  br label %159

159:                                              ; preds = %48, %144, %65, %38, %107
  %160 = load ptr, ptr %2, align 8, !tbaa !419
  %161 = getelementptr inbounds nuw i8, ptr %160, i64 2
  store ptr %161, ptr %2, align 8, !tbaa !419
  %162 = icmp ult ptr %161, %1
  br i1 %162, label %26, label %.thread83, !llvm.loop !422

.thread83:                                        ; preds = %159, %26, %33, %43, %60, %83, %137, %139, %87, %92, %97, %21, %10
  %.0 = phi i32 [ 1, %10 ], [ 0, %21 ], [ 0, %159 ], [ 2, %26 ], [ 1, %33 ], [ 1, %43 ], [ 1, %60 ], [ 1, %83 ], [ 2, %137 ], [ 1, %139 ], [ 2, %87 ], [ 1, %92 ], [ 2, %97 ]
  ret i32 %.0
}